; Function Attrs: mustprogress uwtable
define void @_ZN17InteractionOfType19sortDihedralAtomIdsEv(ptr nocapture noundef nonnull readonly align 8 dereferenceable(104) %0) local_unnamed_addr #1 align 2 {
  %2 = getelementptr inbounds i8, ptr %0, i64 8
  %3 = load ptr, ptr %2, align 8
  %4 = load ptr, ptr %0, align 8
  %5 = ptrtoint ptr %3 to i64
  %6 = ptrtoint ptr %4 to i64
  %7 = sub i64 %5, %6
  %8 = icmp ugt i64 %7, 12
  br i1 %8, label %_ZNK17InteractionOfType2alEv.exit, label %9

9:                                                ; preds = %1
  tail call void @_ZN3gmx8internal13assertHandlerEPKcS2_S2_S2_i(ptr noundef nonnull @.str.18, ptr noundef nonnull @.str.19, ptr noundef nonnull @"__PRETTY_FUNCTION__._ZZNK17InteractionOfType2alEvENK3$_0clEv", ptr noundef nonnull @.str.11, i32 noundef 155) #22
  unreachable

_ZNK17InteractionOfType2alEv.exit:                ; preds = %1
  %10 = getelementptr inbounds i8, ptr %4, i64 12
  %11 = load i32, ptr %10, align 4
  %12 = icmp eq ptr %4, %3
  br i1 %12, label %13, label %_ZNK17InteractionOfType2aiEv.exit

13:                                               ; preds = %_ZNK17InteractionOfType2alEv.exit
  tail call void @_ZN3gmx8internal13assertHandlerEPKcS2_S2_S2_i(ptr noundef nonnull @.str.12, ptr noundef nonnull @.str.13, ptr noundef nonnull @"__PRETTY_FUNCTION__._ZZNK17InteractionOfType2aiEvENK3$_0clEv", ptr noundef nonnull @.str.11, i32 noundef 137) #22
  unreachable

_ZNK17InteractionOfType2aiEv.exit:                ; preds = %_ZNK17InteractionOfType2alEv.exit
  %14 = load i32, ptr %4, align 4
  %15 = icmp slt i32 %11, %14
  br i1 %15, label %16, label %21

16:                                               ; preds = %_ZNK17InteractionOfType2aiEv.exit
  store i32 %11, ptr %4, align 4
  store i32 %14, ptr %10, align 4
  %17 = load ptr, ptr %0, align 8
  %18 = getelementptr inbounds i8, ptr %17, i64 4
  %19 = load <2 x i32>, ptr %18, align 4
  %20 = shufflevector <2 x i32> %19, <2 x i32> poison, <2 x i32> <i32 1, i32 0>
  store <2 x i32> %20, ptr %18, align 4
  br label %21

21:                                               ; preds = %16, %_ZNK17InteractionOfType2aiEv.exit
  ret void
}